; Function Attrs: mustprogress uwtable
define dso_local noundef zeroext i1 @_ZNK17cmQtAutoGenerator5InfoT8GetArrayERKNSt7__cxx1112basic_stringIcSt11char_traitsIcESaIcEEERSt6vectorIS6_SaIS6_EEb(ptr noundef nonnull align 8 dereferenceable(48) %0, ptr noundef nonnull align 8 dereferenceable(32) %1, ptr noundef nonnull align 8 dereferenceable(24) %2, i1 noundef zeroext %3) local_unnamed_addr #3 align 2 personality ptr @__gxx_personality_v0 {
  %5 = alloca [2 x %"struct.std::pair.15"], align 8
  %6 = alloca %"class.std::__cxx11::basic_string", align 8
  %7 = tail call noundef nonnull align 8 dereferenceable(40) ptr @_ZNK4Json5ValueixERKNSt7__cxx1112basic_stringIcSt11char_traitsIcESaIcEEE(ptr noundef nonnull align 8 dereferenceable(40) %0, ptr noundef nonnull align 8 dereferenceable(32) %1)
  %8 = tail call noundef zeroext i1 @_ZNK4Json5Value7isArrayEv(ptr noundef nonnull align 8 dereferenceable(40) %7)
  br i1 %8, label %28, label %9

9:                                                ; preds = %4
  %10 = tail call noundef zeroext i1 @_ZNK4Json5Value6isNullEv(ptr noundef nonnull align 8 dereferenceable(40) %7)
  %.not = xor i1 %10, true
  %brmerge = or i1 %.not, %3
  br i1 %brmerge, label %11, label %28

11:                                               ; preds = %9
  call void @llvm.lifetime.start.p0(i64 48, ptr nonnull %5)
  %12 = tail call { i64, ptr } @_ZNKSt7__cxx1112basic_stringIcSt11char_traitsIcESaIcEEcvSt17basic_string_viewIcS2_EEv(ptr noundef nonnull align 8 dereferenceable(32) %1) #21, !noalias !235
  %13 = extractvalue { i64, ptr } %12, 0
  %14 = extractvalue { i64, ptr } %12, 1
  store i64 %13, ptr %5, align 8, !alias.scope !238, !noalias !235
  %.sroa.2.0..sroa_idx.i.i = getelementptr inbounds i8, ptr %5, i64 8
  store ptr %14, ptr %.sroa.2.0..sroa_idx.i.i, align 8, !alias.scope !238, !noalias !235
  %15 = getelementptr inbounds i8, ptr %5, i64 16
  store ptr null, ptr %15, align 8, !alias.scope !238, !noalias !235
  %16 = getelementptr inbounds i8, ptr %5, i64 24
  store i64 17, ptr %16, align 8, !alias.scope !241, !noalias !235
  %.sroa.2.0..sroa_idx.i6.i = getelementptr inbounds i8, ptr %5, i64 32
  store ptr @.str.18, ptr %.sroa.2.0..sroa_idx.i6.i, align 8, !alias.scope !241, !noalias !235
  %17 = getelementptr inbounds i8, ptr %5, i64 40
  store ptr null, ptr %17, align 8, !alias.scope !241, !noalias !235
  call void @_Z10cmCatViewsSt16initializer_listISt4pairISt17basic_string_viewIcSt11char_traitsIcEEPNSt7__cxx1112basic_stringIcS3_SaIcEEEEE(ptr dead_on_unwind nonnull writable sret(%"class.std::__cxx11::basic_string") align 8 %6, ptr nonnull %5, i64 2)
  call void @llvm.lifetime.end.p0(i64 48, ptr nonnull %5)
  %18 = call { i64, ptr } @_ZNKSt7__cxx1112basic_stringIcSt11char_traitsIcESaIcEEcvSt17basic_string_viewIcS2_EEv(ptr noundef nonnull align 8 dereferenceable(32) %6) #21
  %19 = extractvalue { i64, ptr } %18, 0
  %20 = extractvalue { i64, ptr } %18, 1
  %21 = getelementptr inbounds i8, ptr %0, i64 40
  %22 = load ptr, ptr %21, align 8
  %23 = getelementptr inbounds i8, ptr %22, i64 8
  %24 = load i32, ptr %23, align 8
  %25 = invoke noundef zeroext i1 @_ZNK17cmQtAutoGenerator5InfoT8LogErrorEN11cmQtAutoGen4GenTESt17basic_string_viewIcSt11char_traitsIcEE(ptr noundef nonnull align 8 dereferenceable(48) %0, i32 noundef %24, i64 %19, ptr %20)
          to label %_ZNK17cmQtAutoGenerator5InfoT8LogErrorESt17basic_string_viewIcSt11char_traitsIcEE.exit unwind label %26

_ZNK17cmQtAutoGenerator5InfoT8LogErrorESt17basic_string_viewIcSt11char_traitsIcEE.exit: ; preds = %11
  call void @_ZNSt7__cxx1112basic_stringIcSt11char_traitsIcESaIcEED1Ev(ptr noundef nonnull align 8 dereferenceable(32) %6) #21
  br label %32

26:                                               ; preds = %11
  %27 = landingpad { ptr, i32 }
          cleanup
  call void @_ZNSt7__cxx1112basic_stringIcSt11char_traitsIcESaIcEED1Ev(ptr noundef nonnull align 8 dereferenceable(32) %6) #21
  resume { ptr, i32 } %27

28:                                               ; preds = %9, %4
  %29 = tail call noundef zeroext i1 @_ZN17cmQtAutoGenerator5InfoT12GetJsonArrayERSt6vectorINSt7__cxx1112basic_stringIcSt11char_traitsIcESaIcEEESaIS7_EERKN4Json5ValueE(ptr noundef nonnull align 8 dereferenceable(24) %2, ptr noundef nonnull align 8 dereferenceable(40) %7)
  %30 = xor i1 %3, true
  %31 = or i1 %29, %30
  br label %32

32:                                               ; preds = %28, %_ZNK17cmQtAutoGenerator5InfoT8LogErrorESt17basic_string_viewIcSt11char_traitsIcEE.exit
  %.0 = phi i1 [ %31, %28 ], [ false, %_ZNK17cmQtAutoGenerator5InfoT8LogErrorESt17basic_string_viewIcSt11char_traitsIcEE.exit ]
  ret i1 %.0
}